target datalayout = "e-m:e-p270:32:32-p271:32:32-p272:64:64-i64:64-i128:128-f80:128-n8:16:32:64-S128"
target triple = "x86_64-pc-linux-gnu"

@interleaved_ue_golomb_tab = internal global [256 x i16] zeroinitializer, align 16
@golomb_len_tab = internal global [256 x i8] zeroinitializer, align 16
@top_interleaved_ue_golomb_tab = internal global [256 x i16] zeroinitializer, align 16

; Function Attrs: cold nounwind optsize uwtable
define internal void @vc2_init_static_data() #0 {
  %1 = alloca i32, align 4
  store i16 1, ptr getelementptr inbounds ([256 x i16], ptr @interleaved_ue_golomb_tab, i64 0, i64 1), align 2, !tbaa !126
  call void @llvm.lifetime.start.p0(i64 4, ptr %1) #13
  store i32 2, ptr %1, align 4, !tbaa !49
  br label %2

2:                                                ; preds = %48, %0
  %3 = load i32, ptr %1, align 4, !tbaa !49
  %4 = icmp ult i32 %3, 256
  br i1 %4, label %6, label %5

5:                                                ; preds = %2
  call void @llvm.lifetime.end.p0(i64 4, ptr %1) #13
  br label %51

6:                                                ; preds = %2
  %7 = load i32, ptr %1, align 4, !tbaa !49
  %8 = lshr i32 %7, 1
  %9 = zext i32 %8 to i64
  %10 = getelementptr inbounds nuw [256 x i8], ptr @golomb_len_tab, i64 0, i64 %9
  %11 = load i8, ptr %10, align 1, !tbaa !125
  %12 = zext i8 %11 to i32
  %13 = add nsw i32 %12, 2
  %14 = trunc i32 %13 to i8
  %15 = load i32, ptr %1, align 4, !tbaa !49
  %16 = zext i32 %15 to i64
  %17 = getelementptr inbounds nuw [256 x i8], ptr @golomb_len_tab, i64 0, i64 %16
  store i8 %14, ptr %17, align 1, !tbaa !125
  %18 = load i32, ptr %1, align 4, !tbaa !49
  %19 = lshr i32 %18, 1
  %20 = zext i32 %19 to i64
  %21 = getelementptr inbounds nuw [256 x i16], ptr @interleaved_ue_golomb_tab, i64 0, i64 %20
  %22 = load i16, ptr %21, align 2, !tbaa !126
  %23 = zext i16 %22 to i32
  %24 = shl i32 %23, 2
  %25 = load i32, ptr %1, align 4, !tbaa !49
  %26 = and i32 %25, 1
  %27 = or i32 %24, %26
  %28 = trunc i32 %27 to i16
  %29 = load i32, ptr %1, align 4, !tbaa !49
  %30 = zext i32 %29 to i64
  %31 = getelementptr inbounds nuw [256 x i16], ptr @interleaved_ue_golomb_tab, i64 0, i64 %30
  store i16 %28, ptr %31, align 2, !tbaa !126
  %32 = load i32, ptr %1, align 4, !tbaa !49
  %33 = zext i32 %32 to i64
  %34 = getelementptr inbounds nuw [256 x i16], ptr @interleaved_ue_golomb_tab, i64 0, i64 %33
  %35 = load i16, ptr %34, align 2, !tbaa !126
  %36 = zext i16 %35 to i32
  %37 = load i32, ptr %1, align 4, !tbaa !49
  %38 = zext i32 %37 to i64
  %39 = getelementptr inbounds nuw [256 x i8], ptr @golomb_len_tab, i64 0, i64 %38
  %40 = load i8, ptr %39, align 1, !tbaa !125
  %41 = zext i8 %40 to i32
  %42 = shl i32 1, %41
  %43 = xor i32 %36, %42
  %44 = trunc i32 %43 to i16
  %45 = load i32, ptr %1, align 4, !tbaa !49
  %46 = zext i32 %45 to i64
  %47 = getelementptr inbounds nuw [256 x i16], ptr @top_interleaved_ue_golomb_tab, i64 0, i64 %46
  store i16 %44, ptr %47, align 2, !tbaa !126
  br label %48

48:                                               ; preds = %6
  %49 = load i32, ptr %1, align 4, !tbaa !49
  %50 = add i32 %49, 1
  store i32 %50, ptr %1, align 4, !tbaa !49
  br label %2, !llvm.loop !128

51:                                               ; preds = %5
  ret void
}