; Function Attrs: cold nofree norecurse nosync nounwind optsize memory(readwrite, argmem: none, inaccessiblemem: none) uwtable
define internal void @vc2_init_static_data() #3 {
  store i16 1, ptr getelementptr inbounds nuw (i8, ptr @interleaved_ue_golomb_tab, i64 2), align 2, !tbaa !114
  br label %2

1:                                                ; preds = %2
  ret void

2:                                                ; preds = %0, %2
  %indvars.iv = phi i64 [ 2, %0 ], [ %indvars.iv.next, %2 ]
  %3 = trunc nuw nsw i64 %indvars.iv to i32
  %4 = lshr i64 %indvars.iv, 1
  %5 = and i64 %4, 2147483647
  %6 = getelementptr inbounds nuw [256 x i8], ptr @golomb_len_tab, i64 0, i64 %5
  %7 = load i8, ptr %6, align 1, !tbaa !95
  %8 = add i8 %7, 2
  %9 = getelementptr inbounds nuw [256 x i8], ptr @golomb_len_tab, i64 0, i64 %indvars.iv
  store i8 %8, ptr %9, align 1, !tbaa !95
  %10 = getelementptr inbounds nuw [256 x i16], ptr @interleaved_ue_golomb_tab, i64 0, i64 %5
  %11 = load i16, ptr %10, align 2, !tbaa !114
  %12 = zext i16 %11 to i32
  %13 = shl nuw nsw i32 %12, 2
  %14 = and i32 %3, 1
  %15 = or disjoint i32 %13, %14
  %16 = trunc i32 %15 to i16
  %17 = getelementptr inbounds nuw [256 x i16], ptr @interleaved_ue_golomb_tab, i64 0, i64 %indvars.iv
  store i16 %16, ptr %17, align 2, !tbaa !114
  %18 = zext nneg i8 %8 to i32
  %19 = shl nuw i32 1, %18
  %20 = xor i32 %15, %19
  %21 = trunc i32 %20 to i16
  %22 = getelementptr inbounds nuw [256 x i16], ptr @top_interleaved_ue_golomb_tab, i64 0, i64 %indvars.iv
  store i16 %21, ptr %22, align 2, !tbaa !114
  %indvars.iv.next = add nuw nsw i64 %indvars.iv, 1
  %exitcond.not = icmp eq i64 %indvars.iv.next, 256
  br i1 %exitcond.not, label %1, label %2, !llvm.loop !116
}